target datalayout = "e-m:e-p270:32:32-p271:32:32-p272:64:64-i64:64-i128:128-f80:128-n8:16:32:64-S128"
target triple = "x86_64-pc-linux-gnu"

; Function Attrs: mustprogress uwtable
define dso_local noundef zeroext i1 @_ZN18cmParsePHPCoverage13ReadArraySizeERSiRi(ptr noundef nonnull align 8 dereferenceable(16) %0, ptr noundef nonnull align 8 dereferenceable(16) %1, ptr noundef nonnull align 4 dereferenceable(4) %2) #5 align 2 {
  %4 = alloca i1, align 1
  %5 = alloca ptr, align 8
  %6 = alloca ptr, align 8
  %7 = alloca ptr, align 8
  %8 = alloca i8, align 1
  store ptr %0, ptr %5, align 8
  store ptr %1, ptr %6, align 8
  store ptr %2, ptr %7, align 8
  %9 = load ptr, ptr %5, align 8
  store i8 0, ptr %8, align 1
  %10 = load ptr, ptr %6, align 8
  %11 = call noundef nonnull align 8 dereferenceable(16) ptr @_ZNSi3getERc(ptr noundef nonnull align 8 dereferenceable(16) %10, ptr noundef nonnull align 1 dereferenceable(1) %8)
  %12 = load i8, ptr %8, align 1
  %13 = sext i8 %12 to i32
  %14 = icmp ne i32 %13, 97
  br i1 %14, label %15, label %16

15:                                               ; preds = %3
  store i1 false, ptr %4, align 1
  br label %35

16:                                               ; preds = %3
  %17 = load ptr, ptr %6, align 8
  %18 = call noundef nonnull align 8 dereferenceable(16) ptr @_ZNSi3getERc(ptr noundef nonnull align 8 dereferenceable(16) %17, ptr noundef nonnull align 1 dereferenceable(1) %8)
  %19 = load ptr, ptr %18, align 8
  %20 = getelementptr i8, ptr %19, i64 -24
  %21 = load i64, ptr %20, align 8
  %22 = getelementptr inbounds i8, ptr %18, i64 %21
  %23 = call noundef zeroext i1 @_ZNKSt9basic_iosIcSt11char_traitsIcEEcvbEv(ptr noundef nonnull align 8 dereferenceable(264) %22)
  br i1 %23, label %24, label %34

24:                                               ; preds = %16
  %25 = load i8, ptr %8, align 1
  %26 = sext i8 %25 to i32
  %27 = icmp eq i32 %26, 58
  br i1 %27, label %28, label %34

28:                                               ; preds = %24
  %29 = load ptr, ptr %6, align 8
  %30 = load ptr, ptr %7, align 8
  %31 = call noundef zeroext i1 @_ZN18cmParsePHPCoverage7ReadIntERSiRi(ptr noundef nonnull align 8 dereferenceable(16) %9, ptr noundef nonnull align 8 dereferenceable(16) %29, ptr noundef nonnull align 4 dereferenceable(4) %30)
  br i1 %31, label %32, label %33

32:                                               ; preds = %28
  store i1 true, ptr %4, align 1
  br label %35

33:                                               ; preds = %28
  br label %34

34:                                               ; preds = %33, %24, %16
  store i1 false, ptr %4, align 1
  br label %35

35:                                               ; preds = %34, %32, %15
  %36 = load i1, ptr %4, align 1
  ret i1 %36
}