; Function Attrs: mustprogress uwtable
define dso_local noundef zeroext i1 @_ZN18cmParsePHPCoverage13ReadArraySizeERSiRi(ptr noundef nonnull readnone align 8 captures(none) dereferenceable(16) %0, ptr noundef nonnull align 8 dereferenceable(16) %1, ptr noundef nonnull writeonly align 4 captures(none) dereferenceable(4) %2) local_unnamed_addr #4 align 2 {
  %4 = alloca i8, align 1
  store i8 0, ptr %4, align 1
  %5 = call noundef nonnull align 8 dereferenceable(16) ptr @_ZNSi3getERc(ptr noundef nonnull align 8 dereferenceable(16) %1, ptr noundef nonnull align 1 dereferenceable(1) %4)
  %6 = load i8, ptr %4, align 1
  %.not = icmp eq i8 %6, 97
  br i1 %.not, label %7, label %18

7:                                                ; preds = %3
  %8 = call noundef nonnull align 8 dereferenceable(16) ptr @_ZNSi3getERc(ptr noundef nonnull align 8 dereferenceable(16) %1, ptr noundef nonnull align 1 dereferenceable(1) %4)
  %9 = load ptr, ptr %8, align 8
  %10 = getelementptr i8, ptr %9, i64 -24
  %11 = load i64, ptr %10, align 8
  %12 = getelementptr inbounds i8, ptr %8, i64 %11
  %13 = call noundef zeroext i1 @_ZNKSt9basic_iosIcSt11char_traitsIcEEcvbEv(ptr noundef nonnull align 8 dereferenceable(264) %12)
  %14 = load i8, ptr %4, align 1
  %15 = icmp eq i8 %14, 58
  %or.cond = select i1 %13, i1 %15, i1 false
  br i1 %or.cond, label %16, label %18

16:                                               ; preds = %7
  %17 = call noundef zeroext i1 @_ZN18cmParsePHPCoverage7ReadIntERSiRi(ptr nonnull align 8 poison, ptr noundef nonnull align 8 dereferenceable(16) %1, ptr noundef nonnull align 4 dereferenceable(4) %2)
  br label %18

18:                                               ; preds = %7, %3, %16
  %.0 = phi i1 [ true, %16 ], [ false, %3 ], [ false, %7 ]
  ret i1 %.0
}